target datalayout = "e-m:e-p270:32:32-p271:32:32-p272:64:64-i64:64-i128:128-f80:128-n8:16:32:64-S128"
target triple = "x86_64-pc-linux-gnu"

%struct.pmix_tma = type { ptr, ptr, ptr, ptr, ptr, ptr, ptr, ptr }
%struct.pmix_value = type { i16, %union.anon }
%union.anon = type { %struct.pmix_envar_t }
%struct.pmix_envar_t = type { ptr, ptr, i8 }
%struct.pmix_info = type { [512 x i8], i32, %struct.pmix_value }
%struct.pmix_app = type { ptr, ptr, ptr, ptr, i32, ptr, i64 }

; Function Attrs: inlinehint nounwind uwtable
define internal zeroext i1 @pmix_bfrops_base_tma_info_is_persistent(ptr noundef %0, ptr noundef %1) #1 {
  %3 = alloca ptr, align 8
  %4 = alloca ptr, align 8
  store ptr %0, ptr %3, align 8, !tbaa !54
  store ptr %1, ptr %4, align 8, !tbaa !8
  %5 = load ptr, ptr %3, align 8, !tbaa !54
  %6 = getelementptr inbounds nuw %struct.pmix_info, ptr %5, i32 0, i32 1
  %7 = load i32, ptr %6, align 8, !tbaa !56
  %8 = and i32 %7, 16
  %9 = icmp ne i32 %8, 0
  ret i1 %9
}

; Function Attrs: inlinehint nounwind uwtable
define internal void @pmix_bfrops_base_tma_info_destruct(ptr noundef %0, ptr noundef %1) #1 {
  %3 = alloca ptr, align 8
  %4 = alloca ptr, align 8
  store ptr %0, ptr %3, align 8, !tbaa !54
  store ptr %1, ptr %4, align 8, !tbaa !8
  %5 = load ptr, ptr %3, align 8, !tbaa !54
  %6 = load ptr, ptr %4, align 8, !tbaa !8
  %7 = call zeroext i1 @pmix_bfrops_base_tma_info_is_persistent(ptr noundef %5, ptr noundef %6)
  br i1 %7, label %12, label %8

8:                                                ; preds = %2
  %9 = load ptr, ptr %3, align 8, !tbaa !54
  %10 = getelementptr inbounds nuw %struct.pmix_info, ptr %9, i32 0, i32 2
  %11 = load ptr, ptr %4, align 8, !tbaa !8
  call void @pmix_bfrops_base_tma_value_destruct(ptr noundef %10, ptr noundef %11)
  br label %12

12:                                               ; preds = %8, %2
  ret void
}

; Function Attrs: inlinehint nounwind uwtable
define internal void @pmix_bfrops_base_tma_info_free(ptr noundef %0, i64 noundef %1, ptr noundef %2) #1 {
  %4 = alloca ptr, align 8
  %5 = alloca i64, align 8
  %6 = alloca ptr, align 8
  %7 = alloca i64, align 8
  store ptr %0, ptr %4, align 8, !tbaa !54
  store i64 %1, ptr %5, align 8, !tbaa !30
  store ptr %2, ptr %6, align 8, !tbaa !8
  %8 = load ptr, ptr %4, align 8, !tbaa !54
  %9 = icmp ne ptr null, %8
  br i1 %9, label %10, label %27

10:                                               ; preds = %3
  call void @llvm.lifetime.start.p0(i64 8, ptr %7) #15
  store i64 0, ptr %7, align 8, !tbaa !30
  br label %11

11:                                               ; preds = %21, %10
  %12 = load i64, ptr %7, align 8, !tbaa !30
  %13 = load i64, ptr %5, align 8, !tbaa !30
  %14 = icmp ult i64 %12, %13
  br i1 %14, label %16, label %15

15:                                               ; preds = %11
  call void @llvm.lifetime.end.p0(i64 8, ptr %7) #15
  br label %24

16:                                               ; preds = %11
  %17 = load ptr, ptr %4, align 8, !tbaa !54
  %18 = load i64, ptr %7, align 8, !tbaa !30
  %19 = getelementptr inbounds nuw %struct.pmix_info, ptr %17, i64 %18
  %20 = load ptr, ptr %6, align 8, !tbaa !8
  call void @pmix_bfrops_base_tma_info_destruct(ptr noundef %19, ptr noundef %20)
  br label %21

21:                                               ; preds = %16
  %22 = load i64, ptr %7, align 8, !tbaa !30
  %23 = add i64 %22, 1
  store i64 %23, ptr %7, align 8, !tbaa !30
  br label %11, !llvm.loop !59

24:                                               ; preds = %15
  %25 = load ptr, ptr %6, align 8, !tbaa !8
  %26 = load ptr, ptr %4, align 8, !tbaa !54
  call void @pmix_tma_free(ptr noundef %25, ptr noundef %26)
  br label %27

27:                                               ; preds = %24, %3
  ret void
}

; Function Attrs: inlinehint nounwind uwtable
define internal void @pmix_bfrops_base_tma_argv_free(ptr noundef %0, ptr noundef %1) #1 {
  %3 = alloca ptr, align 8
  %4 = alloca ptr, align 8
  %5 = alloca ptr, align 8
  store ptr %0, ptr %3, align 8, !tbaa !16
  store ptr %1, ptr %4, align 8, !tbaa !8
  %6 = load ptr, ptr %3, align 8, !tbaa !16
  %7 = icmp ne ptr null, %6
  br i1 %7, label %8, label %25

8:                                                ; preds = %2
  call void @llvm.lifetime.start.p0(i64 8, ptr %5) #15
  %9 = load ptr, ptr %3, align 8, !tbaa !16
  store ptr %9, ptr %5, align 8, !tbaa !16
  br label %10

10:                                               ; preds = %19, %8
  %11 = load ptr, ptr %5, align 8, !tbaa !16
  %12 = load ptr, ptr %11, align 8, !tbaa !3
  %13 = icmp ne ptr null, %12
  br i1 %13, label %15, label %14

14:                                               ; preds = %10
  call void @llvm.lifetime.end.p0(i64 8, ptr %5) #15
  br label %22

15:                                               ; preds = %10
  %16 = load ptr, ptr %4, align 8, !tbaa !8
  %17 = load ptr, ptr %5, align 8, !tbaa !16
  %18 = load ptr, ptr %17, align 8, !tbaa !3
  call void @pmix_tma_free(ptr noundef %16, ptr noundef %18)
  br label %19

19:                                               ; preds = %15
  %20 = load ptr, ptr %5, align 8, !tbaa !16
  %21 = getelementptr inbounds nuw ptr, ptr %20, i32 1
  store ptr %21, ptr %5, align 8, !tbaa !16
  br label %10, !llvm.loop !24

22:                                               ; preds = %14
  %23 = load ptr, ptr %4, align 8, !tbaa !8
  %24 = load ptr, ptr %3, align 8, !tbaa !16
  call void @pmix_tma_free(ptr noundef %23, ptr noundef %24)
  br label %25

25:                                               ; preds = %22, %2
  ret void
}

; Function Attrs: inlinehint nounwind uwtable
define internal void @pmix_tma_free(ptr noundef %0, ptr noundef %1) #1 {
  %3 = alloca ptr, align 8
  %4 = alloca ptr, align 8
  store ptr %0, ptr %3, align 8, !tbaa !8
  store ptr %1, ptr %4, align 8, !tbaa !51
  %5 = load ptr, ptr %3, align 8, !tbaa !8
  %6 = icmp ne ptr null, %5
  br i1 %6, label %7, label %13

7:                                                ; preds = %2
  %8 = load ptr, ptr %3, align 8, !tbaa !8
  %9 = getelementptr inbounds nuw %struct.pmix_tma, ptr %8, i32 0, i32 5
  %10 = load ptr, ptr %9, align 8, !tbaa !229
  %11 = load ptr, ptr %3, align 8, !tbaa !8
  %12 = load ptr, ptr %4, align 8, !tbaa !51
  call void %10(ptr noundef %11, ptr noundef %12)
  br label %15

13:                                               ; preds = %2
  %14 = load ptr, ptr %4, align 8, !tbaa !51
  call void @free(ptr noundef %14) #15
  br label %15

15:                                               ; preds = %13, %7
  ret void
}

; Function Attrs: inlinehint nounwind uwtable
define internal void @pmix_bfrops_base_tma_app_destruct(ptr noundef %0, ptr noundef %1) #1 {
  %3 = alloca ptr, align 8
  %4 = alloca ptr, align 8
  store ptr %0, ptr %3, align 8, !tbaa !177
  store ptr %1, ptr %4, align 8, !tbaa !8
  %5 = load ptr, ptr %3, align 8, !tbaa !177
  %6 = getelementptr inbounds nuw %struct.pmix_app, ptr %5, i32 0, i32 0
  %7 = load ptr, ptr %6, align 8, !tbaa !179
  %8 = icmp ne ptr null, %7
  br i1 %8, label %9, label %16

9:                                                ; preds = %2
  %10 = load ptr, ptr %4, align 8, !tbaa !8
  %11 = load ptr, ptr %3, align 8, !tbaa !177
  %12 = getelementptr inbounds nuw %struct.pmix_app, ptr %11, i32 0, i32 0
  %13 = load ptr, ptr %12, align 8, !tbaa !179
  call void @pmix_tma_free(ptr noundef %10, ptr noundef %13)
  %14 = load ptr, ptr %3, align 8, !tbaa !177
  %15 = getelementptr inbounds nuw %struct.pmix_app, ptr %14, i32 0, i32 0
  store ptr null, ptr %15, align 8, !tbaa !179
  br label %16

16:                                               ; preds = %9, %2
  %17 = load ptr, ptr %3, align 8, !tbaa !177
  %18 = getelementptr inbounds nuw %struct.pmix_app, ptr %17, i32 0, i32 1
  %19 = load ptr, ptr %18, align 8, !tbaa !181
  %20 = icmp ne ptr null, %19
  br i1 %20, label %21, label %28

21:                                               ; preds = %16
  %22 = load ptr, ptr %3, align 8, !tbaa !177
  %23 = getelementptr inbounds nuw %struct.pmix_app, ptr %22, i32 0, i32 1
  %24 = load ptr, ptr %23, align 8, !tbaa !181
  %25 = load ptr, ptr %4, align 8, !tbaa !8
  call void @pmix_bfrops_base_tma_argv_free(ptr noundef %24, ptr noundef %25)
  %26 = load ptr, ptr %3, align 8, !tbaa !177
  %27 = getelementptr inbounds nuw %struct.pmix_app, ptr %26, i32 0, i32 1
  store ptr null, ptr %27, align 8, !tbaa !181
  br label %28

28:                                               ; preds = %21, %16
  %29 = load ptr, ptr %3, align 8, !tbaa !177
  %30 = getelementptr inbounds nuw %struct.pmix_app, ptr %29, i32 0, i32 2
  %31 = load ptr, ptr %30, align 8, !tbaa !182
  %32 = icmp ne ptr null, %31
  br i1 %32, label %33, label %40

33:                                               ; preds = %28
  %34 = load ptr, ptr %3, align 8, !tbaa !177
  %35 = getelementptr inbounds nuw %struct.pmix_app, ptr %34, i32 0, i32 2
  %36 = load ptr, ptr %35, align 8, !tbaa !182
  %37 = load ptr, ptr %4, align 8, !tbaa !8
  call void @pmix_bfrops_base_tma_argv_free(ptr noundef %36, ptr noundef %37)
  %38 = load ptr, ptr %3, align 8, !tbaa !177
  %39 = getelementptr inbounds nuw %struct.pmix_app, ptr %38, i32 0, i32 2
  store ptr null, ptr %39, align 8, !tbaa !182
  br label %40

40:                                               ; preds = %33, %28
  %41 = load ptr, ptr %3, align 8, !tbaa !177
  %42 = getelementptr inbounds nuw %struct.pmix_app, ptr %41, i32 0, i32 3
  %43 = load ptr, ptr %42, align 8, !tbaa !183
  %44 = icmp ne ptr null, %43
  br i1 %44, label %45, label %52

45:                                               ; preds = %40
  %46 = load ptr, ptr %4, align 8, !tbaa !8
  %47 = load ptr, ptr %3, align 8, !tbaa !177
  %48 = getelementptr inbounds nuw %struct.pmix_app, ptr %47, i32 0, i32 3
  %49 = load ptr, ptr %48, align 8, !tbaa !183
  call void @pmix_tma_free(ptr noundef %46, ptr noundef %49)
  %50 = load ptr, ptr %3, align 8, !tbaa !177
  %51 = getelementptr inbounds nuw %struct.pmix_app, ptr %50, i32 0, i32 3
  store ptr null, ptr %51, align 8, !tbaa !183
  br label %52

52:                                               ; preds = %45, %40
  %53 = load ptr, ptr %3, align 8, !tbaa !177
  %54 = getelementptr inbounds nuw %struct.pmix_app, ptr %53, i32 0, i32 5
  %55 = load ptr, ptr %54, align 8, !tbaa !184
  %56 = icmp ne ptr null, %55
  br i1 %56, label %57, label %69

57:                                               ; preds = %52
  %58 = load ptr, ptr %3, align 8, !tbaa !177
  %59 = getelementptr inbounds nuw %struct.pmix_app, ptr %58, i32 0, i32 5
  %60 = load ptr, ptr %59, align 8, !tbaa !184
  %61 = load ptr, ptr %3, align 8, !tbaa !177
  %62 = getelementptr inbounds nuw %struct.pmix_app, ptr %61, i32 0, i32 6
  %63 = load i64, ptr %62, align 8, !tbaa !185
  %64 = load ptr, ptr %4, align 8, !tbaa !8
  call void @pmix_bfrops_base_tma_info_free(ptr noundef %60, i64 noundef %63, ptr noundef %64)
  %65 = load ptr, ptr %3, align 8, !tbaa !177
  %66 = getelementptr inbounds nuw %struct.pmix_app, ptr %65, i32 0, i32 5
  store ptr null, ptr %66, align 8, !tbaa !184
  %67 = load ptr, ptr %3, align 8, !tbaa !177
  %68 = getelementptr inbounds nuw %struct.pmix_app, ptr %67, i32 0, i32 6
  store i64 0, ptr %68, align 8, !tbaa !185
  br label %69

69:                                               ; preds = %57, %52
  ret void
}