; Function Attrs: inlinehint nounwind uwtable
define internal fastcc void @pmix_bfrops_base_tma_app_destruct(ptr noundef captures(none) %0) unnamed_addr #7 {
  %2 = load ptr, ptr %0, align 8, !tbaa !120
  %.not = icmp eq ptr %2, null
  br i1 %.not, label %4, label %3

3:                                                ; preds = %1
  tail call void @free(ptr noundef nonnull %2) #44
  store ptr null, ptr %0, align 8, !tbaa !120
  br label %4

4:                                                ; preds = %3, %1
  %5 = getelementptr inbounds nuw i8, ptr %0, i64 8
  %6 = load ptr, ptr %5, align 8, !tbaa !123
  %.not26 = icmp eq ptr %6, null
  br i1 %.not26, label %11, label %.preheader.i

.preheader.i:                                     ; preds = %4
  %7 = load ptr, ptr %6, align 8, !tbaa !12
  %.not101.i = icmp eq ptr %7, null
  br i1 %.not101.i, label %pmix_bfrops_base_tma_argv_free.exit, label %.lr.ph.i

.lr.ph.i:                                         ; preds = %.preheader.i, %.lr.ph.i
  %8 = phi ptr [ %10, %.lr.ph.i ], [ %7, %.preheader.i ]
  %.02.i = phi ptr [ %9, %.lr.ph.i ], [ %6, %.preheader.i ]
  tail call void @free(ptr noundef nonnull %8) #44
  %9 = getelementptr inbounds nuw i8, ptr %.02.i, i64 8
  %10 = load ptr, ptr %9, align 8, !tbaa !12
  %.not10.i = icmp eq ptr %10, null
  br i1 %.not10.i, label %pmix_bfrops_base_tma_argv_free.exit, label %.lr.ph.i, !llvm.loop !19

pmix_bfrops_base_tma_argv_free.exit:              ; preds = %.lr.ph.i, %.preheader.i
  tail call void @free(ptr noundef nonnull %6) #44
  store ptr null, ptr %5, align 8, !tbaa !123
  br label %11

11:                                               ; preds = %pmix_bfrops_base_tma_argv_free.exit, %4
  %12 = getelementptr inbounds nuw i8, ptr %0, i64 16
  %13 = load ptr, ptr %12, align 8, !tbaa !124
  %.not27 = icmp eq ptr %13, null
  br i1 %.not27, label %18, label %.preheader.i31

.preheader.i31:                                   ; preds = %11
  %14 = load ptr, ptr %13, align 8, !tbaa !12
  %.not101.i32 = icmp eq ptr %14, null
  br i1 %.not101.i32, label %pmix_bfrops_base_tma_argv_free.exit37, label %.lr.ph.i33

.lr.ph.i33:                                       ; preds = %.preheader.i31, %.lr.ph.i33
  %15 = phi ptr [ %17, %.lr.ph.i33 ], [ %14, %.preheader.i31 ]
  %.02.i34 = phi ptr [ %16, %.lr.ph.i33 ], [ %13, %.preheader.i31 ]
  tail call void @free(ptr noundef nonnull %15) #44
  %16 = getelementptr inbounds nuw i8, ptr %.02.i34, i64 8
  %17 = load ptr, ptr %16, align 8, !tbaa !12
  %.not10.i35 = icmp eq ptr %17, null
  br i1 %.not10.i35, label %pmix_bfrops_base_tma_argv_free.exit37, label %.lr.ph.i33, !llvm.loop !19

pmix_bfrops_base_tma_argv_free.exit37:            ; preds = %.lr.ph.i33, %.preheader.i31
  tail call void @free(ptr noundef nonnull %13) #44
  store ptr null, ptr %12, align 8, !tbaa !124
  br label %18

18:                                               ; preds = %pmix_bfrops_base_tma_argv_free.exit37, %11
  %19 = getelementptr inbounds nuw i8, ptr %0, i64 24
  %20 = load ptr, ptr %19, align 8, !tbaa !125
  %.not28 = icmp eq ptr %20, null
  br i1 %.not28, label %22, label %21

21:                                               ; preds = %18
  tail call void @free(ptr noundef nonnull %20) #44
  store ptr null, ptr %19, align 8, !tbaa !125
  br label %22

22:                                               ; preds = %21, %18
  %23 = getelementptr inbounds nuw i8, ptr %0, i64 40
  %24 = load ptr, ptr %23, align 8, !tbaa !126
  %.not29 = icmp eq ptr %24, null
  br i1 %.not29, label %34, label %25

25:                                               ; preds = %22
  %26 = getelementptr inbounds nuw i8, ptr %0, i64 48
  %27 = load i64, ptr %26, align 8, !tbaa !127
  %.not3 = icmp eq i64 %27, 0
  br i1 %.not3, label %pmix_bfrops_base_tma_info_free.exit, label %.lr.ph

.lr.ph:                                           ; preds = %25, %pmix_bfrops_base_tma_info_destruct.exit
  %.0.i2 = phi i64 [ %33, %pmix_bfrops_base_tma_info_destruct.exit ], [ 0, %25 ]
  %28 = getelementptr inbounds nuw %struct.pmix_info, ptr %24, i64 %.0.i2
  %29 = getelementptr i8, ptr %28, i64 512
  %.val.i = load i32, ptr %29, align 8, !tbaa !80
  %30 = and i32 %.val.i, 16
  %.not1 = icmp eq i32 %30, 0
  br i1 %.not1, label %31, label %pmix_bfrops_base_tma_info_destruct.exit

31:                                               ; preds = %.lr.ph
  %32 = getelementptr inbounds nuw i8, ptr %28, i64 520
  tail call fastcc void @pmix_bfrops_base_tma_value_destruct(ptr noundef nonnull %32)
  br label %pmix_bfrops_base_tma_info_destruct.exit

pmix_bfrops_base_tma_info_destruct.exit:          ; preds = %.lr.ph, %31
  %33 = add nuw i64 %.0.i2, 1
  %exitcond.not = icmp eq i64 %33, %27
  br i1 %exitcond.not, label %pmix_bfrops_base_tma_info_free.exit, label %.lr.ph, !llvm.loop !83

pmix_bfrops_base_tma_info_free.exit:              ; preds = %pmix_bfrops_base_tma_info_destruct.exit, %25
  tail call void @free(ptr noundef nonnull %24) #44
  tail call void @llvm.memset.p0.i64(ptr noundef nonnull align 8 dereferenceable(16) %23, i8 0, i64 16, i1 false)
  br label %34

34:                                               ; preds = %pmix_bfrops_base_tma_info_free.exit, %22
  ret void
}